target datalayout = "e-m:e-p270:32:32-p271:32:32-p272:64:64-i64:64-i128:128-f80:128-n8:16:32:64-S128"
target triple = "x86_64-pc-linux-gnu"

%struct.node_stack_t = type { ptr, i64, i64, i64 }
%struct.Agobj_s = type { %struct.Agtag_s, ptr }
%struct.Agtag_s = type { i32, i64 }
%struct.dtlink_s_ = type { ptr, %union.anon.1 }
%union.anon.1 = type { ptr }
%struct.Agrec_s = type { ptr, ptr }
%struct.Agnode_s = type { %struct.Agobj_s, ptr, %struct.Agsubnode_s }
%struct.Agsubnode_s = type { %struct.dtlink_s_, %struct.dtlink_s_, ptr, ptr, ptr, ptr, ptr }
%struct.nodeinfo_t = type { %struct.Agrec_s, i8, ptr }

@Stk = internal global %struct.node_stack_t zeroinitializer, align 8
@stderr = external global ptr, align 8
@.str.23 = private unnamed_addr constant [20 x i8] c"realloc failed: %s\0A\00", align 1

; Function Attrs: inlinehint nounwind uwtable
define internal i32 @node_stack_try_append(ptr noundef %0, ptr noundef %1) #3 {
  %3 = alloca i32, align 4
  %4 = alloca ptr, align 8
  %5 = alloca ptr, align 8
  %6 = alloca i64, align 8
  %7 = alloca i32, align 4
  %8 = alloca ptr, align 8
  %9 = alloca i64, align 8
  %10 = alloca i64, align 8
  %11 = alloca i64, align 8
  store ptr %0, ptr %4, align 8, !tbaa !51
  store ptr %1, ptr %5, align 8, !tbaa !25
  %12 = load ptr, ptr %4, align 8, !tbaa !51
  %13 = getelementptr inbounds nuw %struct.node_stack_t, ptr %12, i32 0, i32 2
  %14 = load i64, ptr %13, align 8, !tbaa !83
  %15 = load ptr, ptr %4, align 8, !tbaa !51
  %16 = getelementptr inbounds nuw %struct.node_stack_t, ptr %15, i32 0, i32 3
  %17 = load i64, ptr %16, align 8, !tbaa !84
  %18 = icmp eq i64 %14, %17
  br i1 %18, label %19, label %113

19:                                               ; preds = %2
  call void @llvm.lifetime.start.p0(i64 8, ptr %6) #14
  %20 = load ptr, ptr %4, align 8, !tbaa !51
  %21 = getelementptr inbounds nuw %struct.node_stack_t, ptr %20, i32 0, i32 3
  %22 = load i64, ptr %21, align 8, !tbaa !84
  %23 = icmp eq i64 %22, 0
  br i1 %23, label %24, label %25

24:                                               ; preds = %19
  br label %30

25:                                               ; preds = %19
  %26 = load ptr, ptr %4, align 8, !tbaa !51
  %27 = getelementptr inbounds nuw %struct.node_stack_t, ptr %26, i32 0, i32 3
  %28 = load i64, ptr %27, align 8, !tbaa !84
  %29 = mul i64 %28, 2
  br label %30

30:                                               ; preds = %25, %24
  %31 = phi i64 [ 1, %24 ], [ %29, %25 ]
  store i64 %31, ptr %6, align 8, !tbaa !42
  %32 = load i64, ptr %6, align 8, !tbaa !42
  %33 = udiv i64 -1, %32
  %34 = icmp ult i64 %33, 8
  br i1 %34, label %35, label %36

35:                                               ; preds = %30
  store i32 34, ptr %3, align 4
  store i32 1, ptr %7, align 4
  br label %110

36:                                               ; preds = %30
  call void @llvm.lifetime.start.p0(i64 8, ptr %8) #14
  %37 = load ptr, ptr %4, align 8, !tbaa !51
  %38 = getelementptr inbounds nuw %struct.node_stack_t, ptr %37, i32 0, i32 0
  %39 = load ptr, ptr %38, align 8, !tbaa !52
  %40 = load i64, ptr %6, align 8, !tbaa !42
  %41 = mul i64 %40, 8
  %42 = call ptr @realloc(ptr noundef %39, i64 noundef %41) #19
  store ptr %42, ptr %8, align 8, !tbaa !85
  %43 = load ptr, ptr %8, align 8, !tbaa !85
  %44 = icmp eq ptr %43, null
  br i1 %44, label %45, label %46

45:                                               ; preds = %36
  store i32 12, ptr %3, align 4
  store i32 1, ptr %7, align 4
  br label %109

46:                                               ; preds = %36
  %47 = load ptr, ptr %8, align 8, !tbaa !85
  %48 = load ptr, ptr %4, align 8, !tbaa !51
  %49 = getelementptr inbounds nuw %struct.node_stack_t, ptr %48, i32 0, i32 3
  %50 = load i64, ptr %49, align 8, !tbaa !84
  %51 = getelementptr inbounds nuw ptr, ptr %47, i64 %50
  %52 = load i64, ptr %6, align 8, !tbaa !42
  %53 = load ptr, ptr %4, align 8, !tbaa !51
  %54 = getelementptr inbounds nuw %struct.node_stack_t, ptr %53, i32 0, i32 3
  %55 = load i64, ptr %54, align 8, !tbaa !84
  %56 = sub i64 %52, %55
  %57 = mul i64 %56, 8
  call void @llvm.memset.p0.i64(ptr align 8 %51, i8 0, i64 %57, i1 false)
  br label %58

58:                                               ; preds = %46
  br label %59

59:                                               ; preds = %58
  br label %60

60:                                               ; preds = %59
  %61 = load ptr, ptr %4, align 8, !tbaa !51
  %62 = getelementptr inbounds nuw %struct.node_stack_t, ptr %61, i32 0, i32 1
  %63 = load i64, ptr %62, align 8, !tbaa !86
  %64 = load ptr, ptr %4, align 8, !tbaa !51
  %65 = getelementptr inbounds nuw %struct.node_stack_t, ptr %64, i32 0, i32 2
  %66 = load i64, ptr %65, align 8, !tbaa !83
  %67 = add i64 %63, %66
  %68 = load ptr, ptr %4, align 8, !tbaa !51
  %69 = getelementptr inbounds nuw %struct.node_stack_t, ptr %68, i32 0, i32 3
  %70 = load i64, ptr %69, align 8, !tbaa !84
  %71 = icmp ugt i64 %67, %70
  br i1 %71, label %72, label %102

72:                                               ; preds = %60
  call void @llvm.lifetime.start.p0(i64 8, ptr %9) #14
  %73 = load ptr, ptr %4, align 8, !tbaa !51
  %74 = getelementptr inbounds nuw %struct.node_stack_t, ptr %73, i32 0, i32 3
  %75 = load i64, ptr %74, align 8, !tbaa !84
  %76 = load ptr, ptr %4, align 8, !tbaa !51
  %77 = getelementptr inbounds nuw %struct.node_stack_t, ptr %76, i32 0, i32 1
  %78 = load i64, ptr %77, align 8, !tbaa !86
  %79 = sub i64 %75, %78
  store i64 %79, ptr %9, align 8, !tbaa !42
  call void @llvm.lifetime.start.p0(i64 8, ptr %10) #14
  %80 = load i64, ptr %6, align 8, !tbaa !42
  %81 = load i64, ptr %9, align 8, !tbaa !42
  %82 = sub i64 %80, %81
  store i64 %82, ptr %10, align 8, !tbaa !42
  br label %83

83:                                               ; preds = %72
  br label %84

84:                                               ; preds = %83
  br label %85

85:                                               ; preds = %84
  %86 = load ptr, ptr %8, align 8, !tbaa !85
  %87 = load i64, ptr %10, align 8, !tbaa !42
  %88 = getelementptr inbounds nuw ptr, ptr %86, i64 %87
  %89 = load ptr, ptr %8, align 8, !tbaa !85
  %90 = load ptr, ptr %4, align 8, !tbaa !51
  %91 = getelementptr inbounds nuw %struct.node_stack_t, ptr %90, i32 0, i32 1
  %92 = load i64, ptr %91, align 8, !tbaa !86
  %93 = getelementptr inbounds nuw ptr, ptr %89, i64 %92
  %94 = load i64, ptr %9, align 8, !tbaa !42
  %95 = mul i64 %94, 8
  call void @llvm.memmove.p0.p0.i64(ptr align 8 %88, ptr align 8 %93, i64 %95, i1 false)
  br label %96

96:                                               ; preds = %85
  br label %97

97:                                               ; preds = %96
  br label %98

98:                                               ; preds = %97
  %99 = load i64, ptr %10, align 8, !tbaa !42
  %100 = load ptr, ptr %4, align 8, !tbaa !51
  %101 = getelementptr inbounds nuw %struct.node_stack_t, ptr %100, i32 0, i32 1
  store i64 %99, ptr %101, align 8, !tbaa !86
  call void @llvm.lifetime.end.p0(i64 8, ptr %10) #14
  call void @llvm.lifetime.end.p0(i64 8, ptr %9) #14
  br label %102

102:                                              ; preds = %98, %60
  %103 = load ptr, ptr %8, align 8, !tbaa !85
  %104 = load ptr, ptr %4, align 8, !tbaa !51
  %105 = getelementptr inbounds nuw %struct.node_stack_t, ptr %104, i32 0, i32 0
  store ptr %103, ptr %105, align 8, !tbaa !52
  %106 = load i64, ptr %6, align 8, !tbaa !42
  %107 = load ptr, ptr %4, align 8, !tbaa !51
  %108 = getelementptr inbounds nuw %struct.node_stack_t, ptr %107, i32 0, i32 3
  store i64 %106, ptr %108, align 8, !tbaa !84
  store i32 0, ptr %7, align 4
  br label %109

109:                                              ; preds = %102, %45
  call void @llvm.lifetime.end.p0(i64 8, ptr %8) #14
  br label %110

110:                                              ; preds = %109, %35
  call void @llvm.lifetime.end.p0(i64 8, ptr %6) #14
  %111 = load i32, ptr %7, align 4
  switch i32 %111, label %140 [
    i32 0, label %112
    i32 1, label %138
  ]

112:                                              ; preds = %110
  br label %113

113:                                              ; preds = %112, %2
  call void @llvm.lifetime.start.p0(i64 8, ptr %11) #14
  %114 = load ptr, ptr %4, align 8, !tbaa !51
  %115 = getelementptr inbounds nuw %struct.node_stack_t, ptr %114, i32 0, i32 1
  %116 = load i64, ptr %115, align 8, !tbaa !86
  %117 = load ptr, ptr %4, align 8, !tbaa !51
  %118 = getelementptr inbounds nuw %struct.node_stack_t, ptr %117, i32 0, i32 2
  %119 = load i64, ptr %118, align 8, !tbaa !83
  %120 = add i64 %116, %119
  %121 = load ptr, ptr %4, align 8, !tbaa !51
  %122 = getelementptr inbounds nuw %struct.node_stack_t, ptr %121, i32 0, i32 3
  %123 = load i64, ptr %122, align 8, !tbaa !84
  %124 = urem i64 %120, %123
  store i64 %124, ptr %11, align 8, !tbaa !42
  br label %125

125:                                              ; preds = %113
  br label %126

126:                                              ; preds = %125
  br label %127

127:                                              ; preds = %126
  %128 = load ptr, ptr %5, align 8, !tbaa !25
  %129 = load ptr, ptr %4, align 8, !tbaa !51
  %130 = getelementptr inbounds nuw %struct.node_stack_t, ptr %129, i32 0, i32 0
  %131 = load ptr, ptr %130, align 8, !tbaa !52
  %132 = load i64, ptr %11, align 8, !tbaa !42
  %133 = getelementptr inbounds nuw ptr, ptr %131, i64 %132
  store ptr %128, ptr %133, align 8, !tbaa !25
  %134 = load ptr, ptr %4, align 8, !tbaa !51
  %135 = getelementptr inbounds nuw %struct.node_stack_t, ptr %134, i32 0, i32 2
  %136 = load i64, ptr %135, align 8, !tbaa !83
  %137 = add i64 %136, 1
  store i64 %137, ptr %135, align 8, !tbaa !83
  store i32 0, ptr %3, align 4
  store i32 1, ptr %7, align 4
  call void @llvm.lifetime.end.p0(i64 8, ptr %11) #14
  br label %138

138:                                              ; preds = %127, %110
  %139 = load i32, ptr %3, align 4
  ret i32 %139

140:                                              ; preds = %110
  unreachable
}

; Function Attrs: inlinehint nounwind uwtable
define internal void @node_stack_append(ptr noundef %0, ptr noundef %1) #3 {
  %3 = alloca ptr, align 8
  %4 = alloca ptr, align 8
  %5 = alloca i32, align 4
  store ptr %0, ptr %3, align 8, !tbaa !51
  store ptr %1, ptr %4, align 8, !tbaa !25
  call void @llvm.lifetime.start.p0(i64 4, ptr %5) #14
  %6 = load ptr, ptr %3, align 8, !tbaa !51
  %7 = load ptr, ptr %4, align 8, !tbaa !25
  %8 = call i32 @node_stack_try_append(ptr noundef %6, ptr noundef %7)
  store i32 %8, ptr %5, align 4, !tbaa !4
  %9 = load i32, ptr %5, align 4, !tbaa !4
  %10 = icmp ne i32 %9, 0
  br i1 %10, label %11, label %16

11:                                               ; preds = %2
  %12 = load ptr, ptr @stderr, align 8, !tbaa !20
  %13 = load i32, ptr %5, align 4, !tbaa !4
  %14 = call ptr @strerror(i32 noundef %13) #14
  %15 = call i32 (ptr, ptr, ...) @fprintf(ptr noundef %12, ptr noundef @.str.23, ptr noundef %14) #14
  call void @graphviz_exit(i32 noundef 1) #15
  unreachable

16:                                               ; preds = %2
  call void @llvm.lifetime.end.p0(i64 4, ptr %5) #14
  ret void
}

; Function Attrs: inlinehint nounwind uwtable
define internal void @node_stack_push_back(ptr noundef %0, ptr noundef %1) #3 {
  %3 = alloca ptr, align 8
  %4 = alloca ptr, align 8
  store ptr %0, ptr %3, align 8, !tbaa !51
  store ptr %1, ptr %4, align 8, !tbaa !25
  %5 = load ptr, ptr %3, align 8, !tbaa !51
  %6 = load ptr, ptr %4, align 8, !tbaa !25
  call void @node_stack_append(ptr noundef %5, ptr noundef %6)
  ret void
}

; Function Attrs: nounwind uwtable
define internal void @push(ptr noundef %0) #0 {
  %2 = alloca ptr, align 8
  store ptr %0, ptr %2, align 8, !tbaa !25
  %3 = load ptr, ptr %2, align 8, !tbaa !25
  %4 = getelementptr inbounds nuw %struct.Agnode_s, ptr %3, i32 0, i32 0
  %5 = getelementptr inbounds nuw %struct.Agobj_s, ptr %4, i32 0, i32 1
  %6 = load ptr, ptr %5, align 8, !tbaa !44
  %7 = getelementptr inbounds nuw %struct.nodeinfo_t, ptr %6, i32 0, i32 1
  store i8 -1, ptr %7, align 8, !tbaa !47
  %8 = load ptr, ptr %2, align 8, !tbaa !25
  call void @node_stack_push_back(ptr noundef @Stk, ptr noundef %8)
  ret void
}