; Function Attrs: nounwind uwtable
define internal fastcc void @push(ptr noundef %0) unnamed_addr #11 {
  %2 = getelementptr inbounds nuw i8, ptr %0, i64 16
  %3 = load ptr, ptr %2, align 8, !tbaa !20
  %4 = getelementptr inbounds nuw i8, ptr %3, i64 16
  store i8 -1, ptr %4, align 8, !tbaa !51
  %5 = load i64, ptr getelementptr inbounds nuw (i8, ptr @Stk, i64 16), align 8, !tbaa !59
  %6 = load i64, ptr getelementptr inbounds nuw (i8, ptr @Stk, i64 24), align 8, !tbaa !62
  %7 = icmp eq i64 %5, %6
  br i1 %7, label %8, label %._crit_edge.i.i.i

._crit_edge.i.i.i:                                ; preds = %1
  %.pre.i.i.i = load i64, ptr getelementptr inbounds nuw (i8, ptr @Stk, i64 8), align 8, !tbaa !61
  %.pre4.i.i.i = load ptr, ptr @Stk, align 8, !tbaa !55
  br label %node_stack_push_back.exit

8:                                                ; preds = %1
  %9 = icmp eq i64 %5, 0
  %10 = shl i64 %5, 1
  %spec.select.i.i.i = select i1 %9, i64 1, i64 %10
  %mul.ov.i.i.i = icmp ugt i64 %spec.select.i.i.i, 2305843009213693951
  br i1 %mul.ov.i.i.i, label %33, label %11

11:                                               ; preds = %8
  %12 = load ptr, ptr @Stk, align 8, !tbaa !55
  %13 = shl nuw i64 %spec.select.i.i.i, 3
  %14 = tail call ptr @realloc(ptr noundef %12, i64 noundef %13) #28
  %15 = icmp eq ptr %14, null
  br i1 %15, label %33, label %16

16:                                               ; preds = %11
  %17 = load i64, ptr getelementptr inbounds nuw (i8, ptr @Stk, i64 24), align 8, !tbaa !62
  %18 = getelementptr inbounds nuw ptr, ptr %14, i64 %17
  %19 = sub i64 %spec.select.i.i.i, %17
  %20 = shl i64 %19, 3
  tail call void @llvm.memset.p0.i64(ptr nonnull align 8 %18, i8 0, i64 %20, i1 false)
  %21 = load i64, ptr getelementptr inbounds nuw (i8, ptr @Stk, i64 8), align 8, !tbaa !61
  %22 = load i64, ptr getelementptr inbounds nuw (i8, ptr @Stk, i64 16), align 8, !tbaa !59
  %23 = add i64 %22, %21
  %24 = icmp ugt i64 %23, %17
  br i1 %24, label %25, label %31

25:                                               ; preds = %16
  %26 = sub i64 %17, %21
  %27 = sub i64 %spec.select.i.i.i, %26
  %28 = getelementptr inbounds nuw ptr, ptr %14, i64 %27
  %29 = getelementptr inbounds nuw ptr, ptr %14, i64 %21
  %30 = shl i64 %26, 3
  tail call void @llvm.memmove.p0.p0.i64(ptr nonnull align 8 %28, ptr nonnull align 8 %29, i64 %30, i1 false)
  store i64 %27, ptr getelementptr inbounds nuw (i8, ptr @Stk, i64 8), align 8, !tbaa !61
  br label %31

31:                                               ; preds = %25, %16
  %32 = phi i64 [ %21, %16 ], [ %27, %25 ]
  store ptr %14, ptr @Stk, align 8, !tbaa !55
  store i64 %spec.select.i.i.i, ptr getelementptr inbounds nuw (i8, ptr @Stk, i64 24), align 8, !tbaa !62
  br label %node_stack_push_back.exit

33:                                               ; preds = %11, %8
  %.2.i.ph.i.i = phi i32 [ 34, %8 ], [ 12, %11 ]
  %34 = load ptr, ptr @stderr, align 8, !tbaa !14
  %35 = tail call ptr @strerror(i32 noundef %.2.i.ph.i.i) #23
  %36 = tail call i32 (ptr, ptr, ...) @fprintf(ptr noundef %34, ptr noundef nonnull @.str.23, ptr noundef %35) #25
  tail call fastcc void @graphviz_exit(i32 noundef 1) #26
  unreachable

node_stack_push_back.exit:                        ; preds = %._crit_edge.i.i.i, %31
  %37 = phi ptr [ %.pre4.i.i.i, %._crit_edge.i.i.i ], [ %14, %31 ]
  %38 = phi i64 [ %6, %._crit_edge.i.i.i ], [ %spec.select.i.i.i, %31 ]
  %39 = phi i64 [ %5, %._crit_edge.i.i.i ], [ %22, %31 ]
  %40 = phi i64 [ %.pre.i.i.i, %._crit_edge.i.i.i ], [ %32, %31 ]
  %41 = add i64 %40, %39
  %42 = urem i64 %41, %38
  %43 = getelementptr inbounds nuw ptr, ptr %37, i64 %42
  store ptr %0, ptr %43, align 8, !tbaa !63
  %44 = add i64 %39, 1
  store i64 %44, ptr getelementptr inbounds nuw (i8, ptr @Stk, i64 16), align 8, !tbaa !59
  ret void
}